Certificate:
    Data:
        Version: 3 (0x2)
        Serial Number: 9973512573653872288 (0x8a6908d80387eea0)
    Signature Algorithm: sha1WithRSAEncryption
        Issuer: C=US, ST=Missouri, O=Siri Proxy, CN=SiriProxyCA
        Validity
            Not Before: Dec 21 05:56:43 2012 GMT
            Not After : Dec 21 05:56:43 2013 GMT
        Subject: C=US, ST=Missouri, O=Siri Proxy, CN=guzzoni.apple.com
        Subject Public Key Info:
            Public Key Algorithm: rsaEncryption
                Public-Key: (1024 bit)
                Modulus:
                    00:c0:04:94:fb:2f:13:67:bd:8d:33:b7:6d:d9:68:
                    b6:71:37:2f:4f:19:c8:93:49:1b:25:21:ff:eb:76:
                    6a:fc:63:bd:bf:07:04:47:45:81:91:f3:cf:5c:cc:
                    f4:48:d5:7d:9d:03:c7:ac:0f:54:68:ce:9a:07:56:
                    c1:71:d5:e5:33:5f:9b:1e:78:f5:96:0a:01:78:0f:
                    20:05:f0:2d:7a:f5:f4:e2:ef:18:99:2e:ca:7d:64:
                    b5:c5:00:0d:9c:9b:4d:4d:6a:aa:b6:da:c3:ee:75:
                    ce:7e:13:3a:00:6d:71:12:64:f9:2c:04:c3:30:00:
                    be:0a:99:77:bb:a1:2a:fe:e1
                Exponent: 65537 (0x10001)
        X509v3 extensions:
            X509v3 Basic Constraints: 
                CA:FALSE
            Netscape Comment: 
                OpenSSL Generated Certificate
            X509v3 Subject Key Identifier: 
                8C:C5:22:8E:E6:7E:F6:EE:B2:B6:08:E8:82:19:9A:B3:9B:24:A7:55
            X509v3 Authority Key Identifier: 
                keyid:CE:85:81:69:43:B6:48:DC:C9:94:43:F3:36:C3:AB:A0:5D:16:2D:A0

    Signature Algorithm: sha1WithRSAEncryption
         b2:44:19:f2:d5:3b:a2:59:74:a9:7a:6c:11:53:fc:3b:e3:9f:
         4e:05:c2:84:bf:10:fb:83:b5:c6:f9:72:f4:07:50:4c:3b:b3:
         48:81:f7:a9:04:42:9d:db:55:49:20:59:08:d7:9e:68:f4:52:
         7b:40:19:7a:1f:ec:64:83:8c:4e:35:46:12:78:7d:14:ea:b2:
         67:b0:0a:d2:19:2a:59:0b:6c:68:73:66:24:e3:dd:c8:c2:3d:
         e2:3b:d6:6f:71:b2:50:0c:17:d7:fa:67:1d:ae:5c:af:c7:7b:
         4f:df:f3:2e:ac:b2:26:3b:15:34:58:86:50:4f:10:c3:5c:37:
         06:d2
-----BEGIN CERTIFICATE-----
MIIClTCCAf6gAwIBAgIJAIppCNgDh+6gMA0GCSqGSIb3DQEBBQUAMEsxCzAJBgNV
BAYTAlVTMREwDwYDVQQIDAhNaXNzb3VyaTETMBEGA1UECgwKU2lyaSBQcm94eTEU
MBIGA1UEAwwLU2lyaVByb3h5Q0EwHhcNMTIxMjIxMDU1NjQzWhcNMTMxMjIxMDU1
NjQzWjBRMQswCQYDVQQGEwJVUzERMA8GA1UECAwITWlzc291cmkxEzARBgNVBAoM
ClNpcmkgUHJveHkxGjAYBgNVBAMMEWd1enpvbmkuYXBwbGUuY29tMIGfMA0GCSqG
SIb3DQEBAQUAA4GNADCBiQKBgQDABJT7LxNnvY0zt23ZaLZxNy9PGciTSRslIf/r
dmr8Y72/BwRHRYGR889czPRI1X2dA8esD1RozpoHVsFx1eUzX5seePWWCgF4DyAF
8C169fTi7xiZLsp9ZLXFAA2cm01Naqq22sPudc5+EzoAbXESZPksBMMwAL4KmXe7
oSr+4QIDAQABo3sweTAJBgNVHRMEAjAAMCwGCWCGSAGG+EIBDQQfFh1PcGVuU1NM
IEdlbmVyYXRlZCBDZXJ0aWZpY2F0ZTAdBgNVHQ4EFgQUjMUijuZ+9u6ytgjoghma
s5skp1UwHwYDVR0jBBgwFoAUzoWBaUO2SNzJlEPzNsOroF0WLaAwDQYJKoZIhvcN
AQEFBQADgYEAskQZ8tU7oll0qXpsEVP8O+OfTgXChL8Q+4O1xvly9AdQTDuzSIH3
qQRCndtVSSBZCNeeaPRSe0AZeh/sZIOMTjVGEnh9FOqyZ7AK0hkqWQtsaHNmJOPd
yMI94jvWb3GyUAwX1/pnHa5cr8d7T9/zLqyyJjsVNFiGUE8Qw1w3BtI=
-----END CERTIFICATE-----
